; Function Attrs: nounwind uwtable
define ptr @l___private_Std_Data_DTreeMap_Internal_Balancing_0__Std_DTreeMap_Internal_Impl_balance_u2098_match__1_splitter___rarg(ptr noundef %0, ptr readnone captures(none) %1, ptr noundef %2, ptr noundef %3) #0 {
  %5 = ptrtoint ptr %0 to i64
  %6 = and i64 %5, 1
  %.not.i34 = icmp eq i64 %6, 0
  br i1 %.not.i34, label %10, label %7

7:                                                ; preds = %4
  %8 = lshr i64 %5, 1
  %9 = trunc i64 %8 to i32
  br label %lean_obj_tag.exit

10:                                               ; preds = %4
  %11 = getelementptr i8, ptr %0, i64 4
  %.val.i = load i32, ptr %11, align 4
  %12 = lshr i32 %.val.i, 24
  br label %lean_obj_tag.exit

lean_obj_tag.exit:                                ; preds = %7, %10
  %.0.i = phi i32 [ %9, %7 ], [ %12, %10 ]
  %13 = icmp eq i32 %.0.i, 0
  br i1 %13, label %14, label %82

14:                                               ; preds = %lean_obj_tag.exit
  %15 = ptrtoint ptr %2 to i64
  %16 = and i64 %15, 1
  %.not49 = icmp eq i64 %16, 0
  br i1 %.not49, label %17, label %lean_dec.exit25

17:                                               ; preds = %14
  %18 = load i32, ptr %2, align 4, !tbaa !8
  %19 = icmp sgt i32 %18, 1
  br i1 %19, label %20, label %22, !prof !11

20:                                               ; preds = %17
  %21 = add nsw i32 %18, -1
  store i32 %21, ptr %2, align 4, !tbaa !8
  br label %lean_dec.exit25

22:                                               ; preds = %17
  %.not.i = icmp eq i32 %18, 0
  br i1 %.not.i, label %lean_dec.exit25, label %23

23:                                               ; preds = %22
  tail call void @lean_dec_ref_cold(ptr noundef nonnull %2) #6
  br label %lean_dec.exit25

lean_dec.exit25:                                  ; preds = %23, %22, %20, %14
  %24 = getelementptr inbounds nuw i8, ptr %0, i64 8
  %25 = load ptr, ptr %24, align 8, !tbaa !4
  %26 = ptrtoint ptr %25 to i64
  %27 = and i64 %26, 1
  %.not50 = icmp eq i64 %27, 0
  br i1 %.not50, label %28, label %lean_inc.exit29

28:                                               ; preds = %lean_dec.exit25
  %.val.i35 = load i32, ptr %25, align 4, !tbaa !8
  %29 = icmp sgt i32 %.val.i35, 0
  br i1 %29, label %30, label %32, !prof !11

30:                                               ; preds = %28
  %31 = add nuw i32 %.val.i35, 1
  store i32 %31, ptr %25, align 4, !tbaa !8
  br label %lean_inc.exit29

32:                                               ; preds = %28
  %.not.i36 = icmp eq i32 %.val.i35, 0
  br i1 %.not.i36, label %lean_inc.exit29, label %33

33:                                               ; preds = %32
  tail call void @lean_inc_ref_cold(ptr noundef nonnull %25) #6
  br label %lean_inc.exit29

lean_inc.exit29:                                  ; preds = %33, %32, %30, %lean_dec.exit25
  %34 = getelementptr inbounds nuw i8, ptr %0, i64 16
  %35 = load ptr, ptr %34, align 8, !tbaa !4
  %36 = ptrtoint ptr %35 to i64
  %37 = and i64 %36, 1
  %.not51 = icmp eq i64 %37, 0
  br i1 %.not51, label %38, label %lean_inc.exit28

38:                                               ; preds = %lean_inc.exit29
  %.val.i37 = load i32, ptr %35, align 4, !tbaa !8
  %39 = icmp sgt i32 %.val.i37, 0
  br i1 %39, label %40, label %42, !prof !11

40:                                               ; preds = %38
  %41 = add nuw i32 %.val.i37, 1
  store i32 %41, ptr %35, align 4, !tbaa !8
  br label %lean_inc.exit28

42:                                               ; preds = %38
  %.not.i38 = icmp eq i32 %.val.i37, 0
  br i1 %.not.i38, label %lean_inc.exit28, label %43

43:                                               ; preds = %42
  tail call void @lean_inc_ref_cold(ptr noundef nonnull %35) #6
  br label %lean_inc.exit28

lean_inc.exit28:                                  ; preds = %43, %42, %40, %lean_inc.exit29
  %44 = getelementptr inbounds nuw i8, ptr %0, i64 24
  %45 = load ptr, ptr %44, align 8, !tbaa !4
  %46 = ptrtoint ptr %45 to i64
  %47 = and i64 %46, 1
  %.not52 = icmp eq i64 %47, 0
  br i1 %.not52, label %48, label %lean_inc.exit27

48:                                               ; preds = %lean_inc.exit28
  %.val.i40 = load i32, ptr %45, align 4, !tbaa !8
  %49 = icmp sgt i32 %.val.i40, 0
  br i1 %49, label %50, label %52, !prof !11

50:                                               ; preds = %48
  %51 = add nuw i32 %.val.i40, 1
  store i32 %51, ptr %45, align 4, !tbaa !8
  br label %lean_inc.exit27

52:                                               ; preds = %48
  %.not.i41 = icmp eq i32 %.val.i40, 0
  br i1 %.not.i41, label %lean_inc.exit27, label %53

53:                                               ; preds = %52
  tail call void @lean_inc_ref_cold(ptr noundef nonnull %45) #6
  br label %lean_inc.exit27

lean_inc.exit27:                                  ; preds = %53, %52, %50, %lean_inc.exit28
  %54 = getelementptr inbounds nuw i8, ptr %0, i64 32
  %55 = load ptr, ptr %54, align 8, !tbaa !4
  %56 = ptrtoint ptr %55 to i64
  %57 = and i64 %56, 1
  %.not53 = icmp eq i64 %57, 0
  br i1 %.not53, label %58, label %lean_inc.exit26

58:                                               ; preds = %lean_inc.exit27
  %.val.i43 = load i32, ptr %55, align 4, !tbaa !8
  %59 = icmp sgt i32 %.val.i43, 0
  br i1 %59, label %60, label %62, !prof !11

60:                                               ; preds = %58
  %61 = add nuw i32 %.val.i43, 1
  store i32 %61, ptr %55, align 4, !tbaa !8
  br label %lean_inc.exit26

62:                                               ; preds = %58
  %.not.i44 = icmp eq i32 %.val.i43, 0
  br i1 %.not.i44, label %lean_inc.exit26, label %63

63:                                               ; preds = %62
  tail call void @lean_inc_ref_cold(ptr noundef nonnull %55) #6
  br label %lean_inc.exit26

lean_inc.exit26:                                  ; preds = %63, %62, %60, %lean_inc.exit27
  %64 = getelementptr inbounds nuw i8, ptr %0, i64 40
  %65 = load ptr, ptr %64, align 8, !tbaa !4
  %66 = ptrtoint ptr %65 to i64
  %67 = and i64 %66, 1
  %.not54 = icmp eq i64 %67, 0
  br i1 %.not54, label %68, label %lean_inc.exit

68:                                               ; preds = %lean_inc.exit26
  %.val.i46 = load i32, ptr %65, align 4, !tbaa !8
  %69 = icmp sgt i32 %.val.i46, 0
  br i1 %69, label %70, label %72, !prof !11

70:                                               ; preds = %68
  %71 = add nuw i32 %.val.i46, 1
  store i32 %71, ptr %65, align 4, !tbaa !8
  br label %lean_inc.exit

72:                                               ; preds = %68
  %.not.i47 = icmp eq i32 %.val.i46, 0
  br i1 %.not.i47, label %lean_inc.exit, label %73

73:                                               ; preds = %72
  tail call void @lean_inc_ref_cold(ptr noundef nonnull %65) #6
  br label %lean_inc.exit

lean_inc.exit:                                    ; preds = %73, %72, %70, %lean_inc.exit26
  br i1 %.not.i34, label %74, label %lean_dec.exit24

74:                                               ; preds = %lean_inc.exit
  %75 = load i32, ptr %0, align 4, !tbaa !8
  %76 = icmp sgt i32 %75, 1
  br i1 %76, label %77, label %79, !prof !11

77:                                               ; preds = %74
  %78 = add nsw i32 %75, -1
  store i32 %78, ptr %0, align 4, !tbaa !8
  br label %lean_dec.exit24

79:                                               ; preds = %74
  %.not.i30 = icmp eq i32 %75, 0
  br i1 %.not.i30, label %lean_dec.exit24, label %80

80:                                               ; preds = %79
  tail call void @lean_dec_ref_cold(ptr noundef nonnull %0) #6
  br label %lean_dec.exit24

lean_dec.exit24:                                  ; preds = %80, %79, %77, %lean_inc.exit
  %81 = tail call ptr @lean_apply_6(ptr noundef %3, ptr noundef %25, ptr noundef %35, ptr noundef %45, ptr noundef %55, ptr noundef %65, ptr noundef nonnull inttoptr (i64 1 to ptr)) #6
  br label %93

82:                                               ; preds = %lean_obj_tag.exit
  %83 = ptrtoint ptr %3 to i64
  %84 = and i64 %83, 1
  %.not = icmp eq i64 %84, 0
  br i1 %.not, label %85, label %lean_dec.exit

85:                                               ; preds = %82
  %86 = load i32, ptr %3, align 4, !tbaa !8
  %87 = icmp sgt i32 %86, 1
  br i1 %87, label %88, label %90, !prof !11

88:                                               ; preds = %85
  %89 = add nsw i32 %86, -1
  store i32 %89, ptr %3, align 4, !tbaa !8
  br label %lean_dec.exit

90:                                               ; preds = %85
  %.not.i32 = icmp eq i32 %86, 0
  br i1 %.not.i32, label %lean_dec.exit, label %91

91:                                               ; preds = %90
  tail call void @lean_dec_ref_cold(ptr noundef nonnull %3) #6
  br label %lean_dec.exit

lean_dec.exit:                                    ; preds = %91, %90, %88, %82
  %92 = tail call ptr @lean_apply_1(ptr noundef %2, ptr noundef nonnull inttoptr (i64 1 to ptr)) #6
  br label %93

93:                                               ; preds = %lean_dec.exit, %lean_dec.exit24
  %.0 = phi ptr [ %81, %lean_dec.exit24 ], [ %92, %lean_dec.exit ]
  ret ptr %.0
}